; ModuleID = '19/863.c'
source_filename = "19/863.c"
target datalayout = "e-m:e-p270:32:32-p271:32:32-p272:64:64-i64:64-f80:128-n8:16:32:64-S128"
target triple = "x86_64-pc-linux-gnu"

@.str = private unnamed_addr constant [3 x i8] c"%s\00", align 1
@.str.1 = private unnamed_addr constant [2 x i8] c" \00", align 1
@.str.2 = private unnamed_addr constant [4 x i8] c"%s\0A\00", align 1

; Function Attrs: noinline nounwind uwtable
define dso_local i32 @main() #0 {
  %1 = alloca i32, align 4
  %2 = alloca [101 x i8], align 16
  %3 = alloca [51 x [101 x i8]], align 16
  %4 = alloca [101 x i8], align 16
  %5 = alloca [101 x i8], align 16
  %6 = alloca i32, align 4
  %7 = alloca i32, align 4
  %8 = alloca i32, align 4
  %9 = alloca i32, align 4
  %10 = alloca i32, align 4
  %11 = alloca i32, align 4
  store i32 0, i32* %1, align 4
  store i32 0, i32* %10, align 4
  store i32 0, i32* %11, align 4
  %12 = getelementptr inbounds [101 x i8], [101 x i8]* %2, i64 0, i64 0
  %13 = call i32 (i8*, ...) bitcast (i32 (...)* @gets to i32 (i8*, ...)*)(i8* %12)
  %14 = getelementptr inbounds [101 x i8], [101 x i8]* %2, i64 0, i64 0
  %15 = call i64 @strlen(i8* %14) #3
  %16 = trunc i64 %15 to i32
  store i32 %16, i32* %9, align 4
  store i32 0, i32* %6, align 4
  store i32 0, i32* %8, align 4
  br label %17

17:                                               ; preds = %60, %0
  %18 = load i32, i32* %6, align 4
  %19 = load i32, i32* %9, align 4
  %20 = icmp slt i32 %18, %19
  br i1 %20, label %21, label %63

21:                                               ; preds = %17
  store i32 0, i32* %7, align 4
  br label %22

22:                                               ; preds = %46, %21
  %23 = load i32, i32* %6, align 4
  %24 = sext i32 %23 to i64
  %25 = getelementptr inbounds [101 x i8], [101 x i8]* %2, i64 0, i64 %24
  %26 = load i8, i8* %25, align 1
  %27 = sext i8 %26 to i32
  %28 = icmp ne i32 %27, 32
  br i1 %28, label %29, label %33

29:                                               ; preds = %22
  %30 = load i32, i32* %6, align 4
  %31 = load i32, i32* %9, align 4
  %32 = icmp slt i32 %30, %31
  br label %33

33:                                               ; preds = %29, %22
  %34 = phi i1 [ false, %22 ], [ %32, %29 ]
  br i1 %34, label %35, label %51

35:                                               ; preds = %33
  %36 = load i32, i32* %6, align 4
  %37 = sext i32 %36 to i64
  %38 = getelementptr inbounds [101 x i8], [101 x i8]* %2, i64 0, i64 %37
  %39 = load i8, i8* %38, align 1
  %40 = load i32, i32* %8, align 4
  %41 = sext i32 %40 to i64
  %42 = getelementptr inbounds [51 x [101 x i8]], [51 x [101 x i8]]* %3, i64 0, i64 %41
  %43 = load i32, i32* %7, align 4
  %44 = sext i32 %43 to i64
  %45 = getelementptr inbounds [101 x i8], [101 x i8]* %42, i64 0, i64 %44
  store i8 %39, i8* %45, align 1
  br label %46

46:                                               ; preds = %35
  %47 = load i32, i32* %6, align 4
  %48 = add nsw i32 %47, 1
  store i32 %48, i32* %6, align 4
  %49 = load i32, i32* %7, align 4
  %50 = add nsw i32 %49, 1
  store i32 %50, i32* %7, align 4
  br label %22

51:                                               ; preds = %33
  %52 = load i32, i32* %8, align 4
  %53 = sext i32 %52 to i64
  %54 = getelementptr inbounds [51 x [101 x i8]], [51 x [101 x i8]]* %3, i64 0, i64 %53
  %55 = load i32, i32* %7, align 4
  %56 = sext i32 %55 to i64
  %57 = getelementptr inbounds [101 x i8], [101 x i8]* %54, i64 0, i64 %56
  store i8 0, i8* %57, align 1
  %58 = load i32, i32* %8, align 4
  %59 = add nsw i32 %58, 1
  store i32 %59, i32* %8, align 4
  br label %60

60:                                               ; preds = %51
  %61 = load i32, i32* %6, align 4
  %62 = add nsw i32 %61, 1
  store i32 %62, i32* %6, align 4
  br label %17

63:                                               ; preds = %17
  %64 = getelementptr inbounds [101 x i8], [101 x i8]* %4, i64 0, i64 0
  %65 = call i32 (i8*, ...) bitcast (i32 (...)* @gets to i32 (i8*, ...)*)(i8* %64)
  %66 = getelementptr inbounds [101 x i8], [101 x i8]* %5, i64 0, i64 0
  %67 = call i32 (i8*, ...) bitcast (i32 (...)* @gets to i32 (i8*, ...)*)(i8* %66)
  store i32 0, i32* %6, align 4
  br label %68

68:                                               ; preds = %92, %63
  %69 = load i32, i32* %6, align 4
  %70 = load i32, i32* %8, align 4
  %71 = sub nsw i32 %70, 1
  %72 = icmp slt i32 %69, %71
  br i1 %72, label %73, label %95

73:                                               ; preds = %68
  %74 = load i32, i32* %6, align 4
  %75 = sext i32 %74 to i64
  %76 = getelementptr inbounds [51 x [101 x i8]], [51 x [101 x i8]]* %3, i64 0, i64 %75
  %77 = getelementptr inbounds [101 x i8], [101 x i8]* %76, i64 0, i64 0
  %78 = getelementptr inbounds [101 x i8], [101 x i8]* %4, i64 0, i64 0
  %79 = call i32 @strcmp(i8* %77, i8* %78) #3
  %80 = icmp eq i32 %79, 0
  br i1 %80, label %81, label %84

81:                                               ; preds = %73
  %82 = getelementptr inbounds [101 x i8], [101 x i8]* %5, i64 0, i64 0
  %83 = call i32 (i8*, ...) @printf(i8* getelementptr inbounds ([3 x i8], [3 x i8]* @.str, i64 0, i64 0), i8* %82)
  br label %90

84:                                               ; preds = %73
  %85 = load i32, i32* %6, align 4
  %86 = sext i32 %85 to i64
  %87 = getelementptr inbounds [51 x [101 x i8]], [51 x [101 x i8]]* %3, i64 0, i64 %86
  %88 = getelementptr inbounds [101 x i8], [101 x i8]* %87, i64 0, i64 0
  %89 = call i32 (i8*, ...) @printf(i8* getelementptr inbounds ([3 x i8], [3 x i8]* @.str, i64 0, i64 0), i8* %88)
  br label %90

90:                                               ; preds = %84, %81
  %91 = call i32 (i8*, ...) @printf(i8* getelementptr inbounds ([2 x i8], [2 x i8]* @.str.1, i64 0, i64 0))
  br label %92

92:                                               ; preds = %90
  %93 = load i32, i32* %6, align 4
  %94 = add nsw i32 %93, 1
  store i32 %94, i32* %6, align 4
  br label %68

95:                                               ; preds = %68
  %96 = load i32, i32* %8, align 4
  %97 = sub nsw i32 %96, 1
  %98 = sext i32 %97 to i64
  %99 = getelementptr inbounds [51 x [101 x i8]], [51 x [101 x i8]]* %3, i64 0, i64 %98
  %100 = getelementptr inbounds [101 x i8], [101 x i8]* %99, i64 0, i64 0
  %101 = getelementptr inbounds [101 x i8], [101 x i8]* %4, i64 0, i64 0
  %102 = call i32 @strcmp(i8* %100, i8* %101) #3
  %103 = icmp eq i32 %102, 0
  br i1 %103, label %104, label %107

104:                                              ; preds = %95
  %105 = getelementptr inbounds [101 x i8], [101 x i8]* %5, i64 0, i64 0
  %106 = call i32 (i8*, ...) @printf(i8* getelementptr inbounds ([4 x i8], [4 x i8]* @.str.2, i64 0, i64 0), i8* %105)
  br label %114

107:                                              ; preds = %95
  %108 = load i32, i32* %8, align 4
  %109 = sub nsw i32 %108, 1
  %110 = sext i32 %109 to i64
  %111 = getelementptr inbounds [51 x [101 x i8]], [51 x [101 x i8]]* %3, i64 0, i64 %110
  %112 = getelementptr inbounds [101 x i8], [101 x i8]* %111, i64 0, i64 0
  %113 = call i32 (i8*, ...) @printf(i8* getelementptr inbounds ([4 x i8], [4 x i8]* @.str.2, i64 0, i64 0), i8* %112)
  br label %114

114:                                              ; preds = %107, %104
  ret i32 0
}

declare dso_local i32 @gets(...) #1

; Function Attrs: nounwind readonly
declare dso_local i64 @strlen(i8*) #2

; Function Attrs: nounwind readonly
declare dso_local i32 @strcmp(i8*, i8*) #2

declare dso_local i32 @printf(i8*, ...) #1


!llvm.module.flags = !{!0}
!llvm.ident = !{!1}

!0 = !{i32 1, !"wchar_size", i32 4}
!1 = !{!"clang version 10.0.0-4ubuntu1 "}
